target datalayout = "e-m:e-p270:32:32-p271:32:32-p272:64:64-i64:64-i128:128-f80:128-n8:16:32:64-S128"
target triple = "x86_64-pc-linux-gnu"

; Function Attrs: nounwind uwtable
define internal void @vert_right_4x4_c(ptr noundef %0, i64 noundef %1, ptr noundef %2, ptr noundef %3) #1 {
  %5 = alloca ptr, align 8
  %6 = alloca i64, align 8
  %7 = alloca ptr, align 8
  %8 = alloca ptr, align 8
  %9 = alloca ptr, align 8
  %10 = alloca ptr, align 8
  %11 = alloca ptr, align 8
  %12 = alloca i32, align 4
  %13 = alloca i32, align 4
  %14 = alloca i32, align 4
  %15 = alloca i32, align 4
  %16 = alloca i32, align 4
  %17 = alloca i32, align 4
  %18 = alloca i32, align 4
  %19 = alloca i32, align 4
  store ptr %0, ptr %5, align 8, !tbaa !10
  store i64 %1, ptr %6, align 8, !tbaa !12
  store ptr %2, ptr %7, align 8, !tbaa !10
  store ptr %3, ptr %8, align 8, !tbaa !10
  call void @llvm.lifetime.start.p0(i64 8, ptr %9) #9
  %20 = load ptr, ptr %5, align 8, !tbaa !10
  store ptr %20, ptr %9, align 8, !tbaa !14
  call void @llvm.lifetime.start.p0(i64 8, ptr %10) #9
  %21 = load ptr, ptr %8, align 8, !tbaa !10
  store ptr %21, ptr %10, align 8, !tbaa !14
  call void @llvm.lifetime.start.p0(i64 8, ptr %11) #9
  %22 = load ptr, ptr %7, align 8, !tbaa !10
  store ptr %22, ptr %11, align 8, !tbaa !14
  call void @llvm.lifetime.start.p0(i64 4, ptr %12) #9
  %23 = load ptr, ptr %10, align 8, !tbaa !14
  %24 = getelementptr inbounds i16, ptr %23, i64 -1
  %25 = load i16, ptr %24, align 2, !tbaa !17
  %26 = zext i16 %25 to i32
  store i32 %26, ptr %12, align 4, !tbaa !19
  call void @llvm.lifetime.start.p0(i64 4, ptr %13) #9
  %27 = load ptr, ptr %10, align 8, !tbaa !14
  %28 = getelementptr inbounds i16, ptr %27, i64 0
  %29 = load i16, ptr %28, align 2, !tbaa !17
  %30 = zext i16 %29 to i32
  store i32 %30, ptr %13, align 4, !tbaa !19
  call void @llvm.lifetime.start.p0(i64 4, ptr %14) #9
  %31 = load ptr, ptr %10, align 8, !tbaa !14
  %32 = getelementptr inbounds i16, ptr %31, i64 1
  %33 = load i16, ptr %32, align 2, !tbaa !17
  %34 = zext i16 %33 to i32
  store i32 %34, ptr %14, align 4, !tbaa !19
  call void @llvm.lifetime.start.p0(i64 4, ptr %15) #9
  %35 = load ptr, ptr %10, align 8, !tbaa !14
  %36 = getelementptr inbounds i16, ptr %35, i64 2
  %37 = load i16, ptr %36, align 2, !tbaa !17
  %38 = zext i16 %37 to i32
  store i32 %38, ptr %15, align 4, !tbaa !19
  call void @llvm.lifetime.start.p0(i64 4, ptr %16) #9
  %39 = load ptr, ptr %10, align 8, !tbaa !14
  %40 = getelementptr inbounds i16, ptr %39, i64 3
  %41 = load i16, ptr %40, align 2, !tbaa !17
  %42 = zext i16 %41 to i32
  store i32 %42, ptr %16, align 4, !tbaa !19
  call void @llvm.lifetime.start.p0(i64 4, ptr %17) #9
  %43 = load ptr, ptr %11, align 8, !tbaa !14
  %44 = getelementptr inbounds i16, ptr %43, i64 3
  %45 = load i16, ptr %44, align 2, !tbaa !17
  %46 = zext i16 %45 to i32
  store i32 %46, ptr %17, align 4, !tbaa !19
  call void @llvm.lifetime.start.p0(i64 4, ptr %18) #9
  %47 = load ptr, ptr %11, align 8, !tbaa !14
  %48 = getelementptr inbounds i16, ptr %47, i64 2
  %49 = load i16, ptr %48, align 2, !tbaa !17
  %50 = zext i16 %49 to i32
  store i32 %50, ptr %18, align 4, !tbaa !19
  call void @llvm.lifetime.start.p0(i64 4, ptr %19) #9
  %51 = load ptr, ptr %11, align 8, !tbaa !14
  %52 = getelementptr inbounds i16, ptr %51, i64 1
  %53 = load i16, ptr %52, align 2, !tbaa !17
  %54 = zext i16 %53 to i32
  store i32 %54, ptr %19, align 4, !tbaa !19
  %55 = load i64, ptr %6, align 8, !tbaa !12
  %56 = udiv i64 %55, 2
  store i64 %56, ptr %6, align 8, !tbaa !12
  %57 = load i32, ptr %17, align 4, !tbaa !19
  %58 = load i32, ptr %18, align 4, !tbaa !19
  %59 = mul nsw i32 %58, 2
  %60 = add nsw i32 %57, %59
  %61 = load i32, ptr %19, align 4, !tbaa !19
  %62 = add nsw i32 %60, %61
  %63 = add nsw i32 %62, 2
  %64 = ashr i32 %63, 2
  %65 = trunc i32 %64 to i16
  %66 = load ptr, ptr %9, align 8, !tbaa !14
  %67 = load i64, ptr %6, align 8, !tbaa !12
  %68 = mul nsw i64 3, %67
  %69 = add nsw i64 0, %68
  %70 = getelementptr inbounds i16, ptr %66, i64 %69
  store i16 %65, ptr %70, align 2, !tbaa !17
  %71 = load i32, ptr %12, align 4, !tbaa !19
  %72 = load i32, ptr %17, align 4, !tbaa !19
  %73 = mul nsw i32 %72, 2
  %74 = add nsw i32 %71, %73
  %75 = load i32, ptr %18, align 4, !tbaa !19
  %76 = add nsw i32 %74, %75
  %77 = add nsw i32 %76, 2
  %78 = ashr i32 %77, 2
  %79 = trunc i32 %78 to i16
  %80 = load ptr, ptr %9, align 8, !tbaa !14
  %81 = load i64, ptr %6, align 8, !tbaa !12
  %82 = mul nsw i64 2, %81
  %83 = add nsw i64 0, %82
  %84 = getelementptr inbounds i16, ptr %80, i64 %83
  store i16 %79, ptr %84, align 2, !tbaa !17
  %85 = load i32, ptr %12, align 4, !tbaa !19
  %86 = load i32, ptr %13, align 4, !tbaa !19
  %87 = add nsw i32 %85, %86
  %88 = add nsw i32 %87, 1
  %89 = ashr i32 %88, 1
  %90 = trunc i32 %89 to i16
  %91 = load ptr, ptr %9, align 8, !tbaa !14
  %92 = load i64, ptr %6, align 8, !tbaa !12
  %93 = mul nsw i64 2, %92
  %94 = add nsw i64 1, %93
  %95 = getelementptr inbounds i16, ptr %91, i64 %94
  store i16 %90, ptr %95, align 2, !tbaa !17
  %96 = load ptr, ptr %9, align 8, !tbaa !14
  %97 = load i64, ptr %6, align 8, !tbaa !12
  %98 = mul nsw i64 0, %97
  %99 = add nsw i64 0, %98
  %100 = getelementptr inbounds i16, ptr %96, i64 %99
  store i16 %90, ptr %100, align 2, !tbaa !17
  %101 = load i32, ptr %17, align 4, !tbaa !19
  %102 = load i32, ptr %12, align 4, !tbaa !19
  %103 = mul nsw i32 %102, 2
  %104 = add nsw i32 %101, %103
  %105 = load i32, ptr %13, align 4, !tbaa !19
  %106 = add nsw i32 %104, %105
  %107 = add nsw i32 %106, 2
  %108 = ashr i32 %107, 2
  %109 = trunc i32 %108 to i16
  %110 = load ptr, ptr %9, align 8, !tbaa !14
  %111 = load i64, ptr %6, align 8, !tbaa !12
  %112 = mul nsw i64 3, %111
  %113 = add nsw i64 1, %112
  %114 = getelementptr inbounds i16, ptr %110, i64 %113
  store i16 %109, ptr %114, align 2, !tbaa !17
  %115 = load ptr, ptr %9, align 8, !tbaa !14
  %116 = load i64, ptr %6, align 8, !tbaa !12
  %117 = mul nsw i64 1, %116
  %118 = add nsw i64 0, %117
  %119 = getelementptr inbounds i16, ptr %115, i64 %118
  store i16 %109, ptr %119, align 2, !tbaa !17
  %120 = load i32, ptr %13, align 4, !tbaa !19
  %121 = load i32, ptr %14, align 4, !tbaa !19
  %122 = add nsw i32 %120, %121
  %123 = add nsw i32 %122, 1
  %124 = ashr i32 %123, 1
  %125 = trunc i32 %124 to i16
  %126 = load ptr, ptr %9, align 8, !tbaa !14
  %127 = load i64, ptr %6, align 8, !tbaa !12
  %128 = mul nsw i64 2, %127
  %129 = add nsw i64 2, %128
  %130 = getelementptr inbounds i16, ptr %126, i64 %129
  store i16 %125, ptr %130, align 2, !tbaa !17
  %131 = load ptr, ptr %9, align 8, !tbaa !14
  %132 = load i64, ptr %6, align 8, !tbaa !12
  %133 = mul nsw i64 0, %132
  %134 = add nsw i64 1, %133
  %135 = getelementptr inbounds i16, ptr %131, i64 %134
  store i16 %125, ptr %135, align 2, !tbaa !17
  %136 = load i32, ptr %12, align 4, !tbaa !19
  %137 = load i32, ptr %13, align 4, !tbaa !19
  %138 = mul nsw i32 %137, 2
  %139 = add nsw i32 %136, %138
  %140 = load i32, ptr %14, align 4, !tbaa !19
  %141 = add nsw i32 %139, %140
  %142 = add nsw i32 %141, 2
  %143 = ashr i32 %142, 2
  %144 = trunc i32 %143 to i16
  %145 = load ptr, ptr %9, align 8, !tbaa !14
  %146 = load i64, ptr %6, align 8, !tbaa !12
  %147 = mul nsw i64 3, %146
  %148 = add nsw i64 2, %147
  %149 = getelementptr inbounds i16, ptr %145, i64 %148
  store i16 %144, ptr %149, align 2, !tbaa !17
  %150 = load ptr, ptr %9, align 8, !tbaa !14
  %151 = load i64, ptr %6, align 8, !tbaa !12
  %152 = mul nsw i64 1, %151
  %153 = add nsw i64 1, %152
  %154 = getelementptr inbounds i16, ptr %150, i64 %153
  store i16 %144, ptr %154, align 2, !tbaa !17
  %155 = load i32, ptr %14, align 4, !tbaa !19
  %156 = load i32, ptr %15, align 4, !tbaa !19
  %157 = add nsw i32 %155, %156
  %158 = add nsw i32 %157, 1
  %159 = ashr i32 %158, 1
  %160 = trunc i32 %159 to i16
  %161 = load ptr, ptr %9, align 8, !tbaa !14
  %162 = load i64, ptr %6, align 8, !tbaa !12
  %163 = mul nsw i64 2, %162
  %164 = add nsw i64 3, %163
  %165 = getelementptr inbounds i16, ptr %161, i64 %164
  store i16 %160, ptr %165, align 2, !tbaa !17
  %166 = load ptr, ptr %9, align 8, !tbaa !14
  %167 = load i64, ptr %6, align 8, !tbaa !12
  %168 = mul nsw i64 0, %167
  %169 = add nsw i64 2, %168
  %170 = getelementptr inbounds i16, ptr %166, i64 %169
  store i16 %160, ptr %170, align 2, !tbaa !17
  %171 = load i32, ptr %13, align 4, !tbaa !19
  %172 = load i32, ptr %14, align 4, !tbaa !19
  %173 = mul nsw i32 %172, 2
  %174 = add nsw i32 %171, %173
  %175 = load i32, ptr %15, align 4, !tbaa !19
  %176 = add nsw i32 %174, %175
  %177 = add nsw i32 %176, 2
  %178 = ashr i32 %177, 2
  %179 = trunc i32 %178 to i16
  %180 = load ptr, ptr %9, align 8, !tbaa !14
  %181 = load i64, ptr %6, align 8, !tbaa !12
  %182 = mul nsw i64 3, %181
  %183 = add nsw i64 3, %182
  %184 = getelementptr inbounds i16, ptr %180, i64 %183
  store i16 %179, ptr %184, align 2, !tbaa !17
  %185 = load ptr, ptr %9, align 8, !tbaa !14
  %186 = load i64, ptr %6, align 8, !tbaa !12
  %187 = mul nsw i64 1, %186
  %188 = add nsw i64 2, %187
  %189 = getelementptr inbounds i16, ptr %185, i64 %188
  store i16 %179, ptr %189, align 2, !tbaa !17
  %190 = load i32, ptr %15, align 4, !tbaa !19
  %191 = load i32, ptr %16, align 4, !tbaa !19
  %192 = add nsw i32 %190, %191
  %193 = add nsw i32 %192, 1
  %194 = ashr i32 %193, 1
  %195 = trunc i32 %194 to i16
  %196 = load ptr, ptr %9, align 8, !tbaa !14
  %197 = load i64, ptr %6, align 8, !tbaa !12
  %198 = mul nsw i64 0, %197
  %199 = add nsw i64 3, %198
  %200 = getelementptr inbounds i16, ptr %196, i64 %199
  store i16 %195, ptr %200, align 2, !tbaa !17
  %201 = load i32, ptr %14, align 4, !tbaa !19
  %202 = load i32, ptr %15, align 4, !tbaa !19
  %203 = mul nsw i32 %202, 2
  %204 = add nsw i32 %201, %203
  %205 = load i32, ptr %16, align 4, !tbaa !19
  %206 = add nsw i32 %204, %205
  %207 = add nsw i32 %206, 2
  %208 = ashr i32 %207, 2
  %209 = trunc i32 %208 to i16
  %210 = load ptr, ptr %9, align 8, !tbaa !14
  %211 = load i64, ptr %6, align 8, !tbaa !12
  %212 = mul nsw i64 1, %211
  %213 = add nsw i64 3, %212
  %214 = getelementptr inbounds i16, ptr %210, i64 %213
  store i16 %209, ptr %214, align 2, !tbaa !17
  call void @llvm.lifetime.end.p0(i64 4, ptr %19) #9
  call void @llvm.lifetime.end.p0(i64 4, ptr %18) #9
  call void @llvm.lifetime.end.p0(i64 4, ptr %17) #9
  call void @llvm.lifetime.end.p0(i64 4, ptr %16) #9
  call void @llvm.lifetime.end.p0(i64 4, ptr %15) #9
  call void @llvm.lifetime.end.p0(i64 4, ptr %14) #9
  call void @llvm.lifetime.end.p0(i64 4, ptr %13) #9
  call void @llvm.lifetime.end.p0(i64 4, ptr %12) #9
  call void @llvm.lifetime.end.p0(i64 8, ptr %11) #9
  call void @llvm.lifetime.end.p0(i64 8, ptr %10) #9
  call void @llvm.lifetime.end.p0(i64 8, ptr %9) #9
  ret void
}