; Function Attrs: mustprogress nofree norecurse nosync nounwind willreturn memory(argmem: readwrite) uwtable
define internal void @vert_right_4x4_c(ptr noundef writeonly captures(none) initializes((0, 8)) %0, i64 noundef %1, ptr noundef readonly captures(none) %2, ptr noundef readonly captures(none) %3) #1 {
  %5 = getelementptr inbounds i8, ptr %3, i64 -2
  %6 = load i16, ptr %5, align 2, !tbaa !9
  %7 = zext i16 %6 to i32
  %8 = load i16, ptr %3, align 2, !tbaa !9
  %9 = zext i16 %8 to i32
  %10 = getelementptr inbounds nuw i8, ptr %3, i64 2
  %11 = load i16, ptr %10, align 2, !tbaa !9
  %12 = zext i16 %11 to i32
  %13 = getelementptr inbounds nuw i8, ptr %3, i64 4
  %14 = load i16, ptr %13, align 2, !tbaa !9
  %15 = zext i16 %14 to i32
  %16 = getelementptr inbounds nuw i8, ptr %3, i64 6
  %17 = load i16, ptr %16, align 2, !tbaa !9
  %18 = zext i16 %17 to i32
  %19 = getelementptr inbounds nuw i8, ptr %2, i64 6
  %20 = load i16, ptr %19, align 2, !tbaa !9
  %21 = zext i16 %20 to i32
  %22 = getelementptr inbounds nuw i8, ptr %2, i64 4
  %23 = load i16, ptr %22, align 2, !tbaa !9
  %24 = zext i16 %23 to i32
  %25 = getelementptr inbounds nuw i8, ptr %2, i64 2
  %26 = load i16, ptr %25, align 2, !tbaa !9
  %27 = zext i16 %26 to i32
  %28 = lshr i64 %1, 1
  %29 = shl nuw nsw i32 %24, 1
  %30 = add nuw nsw i32 %21, 2
  %31 = add nuw nsw i32 %30, %29
  %32 = add nuw nsw i32 %31, %27
  %33 = lshr i32 %32, 2
  %34 = trunc nuw i32 %33 to i16
  %.idx = mul nuw nsw i64 %28, 6
  %35 = getelementptr inbounds nuw i8, ptr %0, i64 %.idx
  store i16 %34, ptr %35, align 2, !tbaa !9
  %36 = shl nuw nsw i32 %21, 1
  %37 = add nuw nsw i32 %7, 2
  %38 = add nuw nsw i32 %37, %36
  %39 = add nuw nsw i32 %38, %24
  %40 = lshr i32 %39, 2
  %41 = trunc nuw i32 %40 to i16
  %42 = and i64 %1, -2
  %43 = getelementptr inbounds nuw i16, ptr %0, i64 %42
  store i16 %41, ptr %43, align 2, !tbaa !9
  %44 = add nuw nsw i32 %9, 1
  %45 = add nuw nsw i32 %44, %7
  %46 = lshr i32 %45, 1
  %47 = trunc nuw i32 %46 to i16
  %48 = or i64 %1, 1
  %49 = getelementptr inbounds nuw i16, ptr %0, i64 %48
  store i16 %47, ptr %49, align 2, !tbaa !9
  store i16 %47, ptr %0, align 2, !tbaa !9
  %50 = shl nuw nsw i32 %7, 1
  %51 = add nuw nsw i32 %9, 2
  %52 = add nuw nsw i32 %51, %50
  %53 = add nuw nsw i32 %52, %21
  %54 = lshr i32 %53, 2
  %55 = trunc nuw i32 %54 to i16
  %56 = getelementptr inbounds nuw i8, ptr %35, i64 2
  store i16 %55, ptr %56, align 2, !tbaa !9
  %57 = getelementptr inbounds nuw i16, ptr %0, i64 %28
  store i16 %55, ptr %57, align 2, !tbaa !9
  %58 = add nuw nsw i32 %44, %12
  %59 = lshr i32 %58, 1
  %60 = trunc nuw i32 %59 to i16
  %61 = getelementptr inbounds nuw i8, ptr %43, i64 4
  store i16 %60, ptr %61, align 2, !tbaa !9
  %62 = getelementptr inbounds nuw i8, ptr %0, i64 2
  store i16 %60, ptr %62, align 2, !tbaa !9
  %63 = shl nuw nsw i32 %9, 1
  %64 = add nuw nsw i32 %37, %63
  %65 = add nuw nsw i32 %64, %12
  %66 = lshr i32 %65, 2
  %67 = trunc nuw i32 %66 to i16
  %68 = getelementptr inbounds nuw i8, ptr %35, i64 4
  store i16 %67, ptr %68, align 2, !tbaa !9
  %69 = getelementptr inbounds nuw i8, ptr %57, i64 2
  store i16 %67, ptr %69, align 2, !tbaa !9
  %70 = add nuw nsw i32 %12, 1
  %71 = add nuw nsw i32 %70, %15
  %72 = lshr i32 %71, 1
  %73 = trunc nuw i32 %72 to i16
  %74 = getelementptr inbounds nuw i8, ptr %43, i64 6
  store i16 %73, ptr %74, align 2, !tbaa !9
  %75 = getelementptr inbounds nuw i8, ptr %0, i64 4
  store i16 %73, ptr %75, align 2, !tbaa !9
  %76 = shl nuw nsw i32 %12, 1
  %77 = add nuw nsw i32 %51, %76
  %78 = add nuw nsw i32 %77, %15
  %79 = lshr i32 %78, 2
  %80 = trunc nuw i32 %79 to i16
  %81 = getelementptr inbounds nuw i8, ptr %35, i64 6
  store i16 %80, ptr %81, align 2, !tbaa !9
  %82 = getelementptr inbounds nuw i8, ptr %57, i64 4
  store i16 %80, ptr %82, align 2, !tbaa !9
  %83 = add nuw nsw i32 %15, 1
  %84 = add nuw nsw i32 %83, %18
  %85 = lshr i32 %84, 1
  %86 = trunc nuw i32 %85 to i16
  %87 = getelementptr inbounds nuw i8, ptr %0, i64 6
  store i16 %86, ptr %87, align 2, !tbaa !9
  %88 = shl nuw nsw i32 %15, 1
  %89 = add nuw nsw i32 %12, 2
  %90 = add nuw nsw i32 %89, %88
  %91 = add nuw nsw i32 %90, %18
  %92 = lshr i32 %91, 2
  %93 = trunc nuw i32 %92 to i16
  %94 = getelementptr inbounds nuw i8, ptr %57, i64 6
  store i16 %93, ptr %94, align 2, !tbaa !9
  ret void
}